; Function Attrs: mustprogress uwtable
define hidden void @_ZNK7datalog7context15display_profileERSo(ptr noundef nonnull align 8 dereferenceable(3556) %this, ptr noundef nonnull align 8 dereferenceable(8) %out) local_unnamed_addr #3 align 2 {
entry:
  %call = tail call noundef nonnull align 8 dereferenceable(8) ptr @_ZStlsISt11char_traitsIcEERSt13basic_ostreamIcT_ES5_PKc(ptr noundef nonnull align 8 dereferenceable(8) %out, ptr noundef nonnull @.str.25)
  %call2 = tail call noundef nonnull align 8 dereferenceable(8) ptr @_ZStlsISt11char_traitsIcEERSt13basic_ostreamIcT_ES5_PKc(ptr noundef nonnull align 8 dereferenceable(8) %out, ptr noundef nonnull @.str.26)
  %m_rule_set.i = getelementptr inbounds i8, ptr %this, i64 2888
  tail call void @_ZNK7datalog8rule_set7displayERSo(ptr noundef nonnull align 8 dereferenceable(248) %m_rule_set.i, ptr noundef nonnull align 8 dereferenceable(8) %out)
  %call3 = tail call noundef nonnull align 8 dereferenceable(8) ptr @_ZStlsISt11char_traitsIcEERSt13basic_ostreamIcT_ES5_PKc(ptr noundef nonnull align 8 dereferenceable(8) %out, ptr noundef nonnull @.str.25)
  %call4 = tail call noundef nonnull align 8 dereferenceable(8) ptr @_ZStlsISt11char_traitsIcEERSt13basic_ostreamIcT_ES5_PKc(ptr noundef nonnull align 8 dereferenceable(8) %out, ptr noundef nonnull @.str.27)
  %m_transformed_rule_set = getelementptr inbounds i8, ptr %this, i64 3136
  tail call void @_ZNK7datalog8rule_set7displayERSo(ptr noundef nonnull align 8 dereferenceable(248) %m_transformed_rule_set, ptr noundef nonnull align 8 dereferenceable(8) %out)
  %m_rel = getelementptr inbounds i8, ptr %this, i64 3496
  %0 = load ptr, ptr %m_rel, align 8
  %tobool.not = icmp eq ptr %0, null
  br i1 %tobool.not, label %if.end, label %if.then

if.then:                                          ; preds = %entry
  %vtable = load ptr, ptr %0, align 8
  %vfn = getelementptr inbounds i8, ptr %vtable, i64 64
  %1 = load ptr, ptr %vfn, align 8
  tail call void %1(ptr noundef nonnull align 8 dereferenceable(48) %0, ptr noundef nonnull align 8 dereferenceable(8) %out)
  br label %if.end

if.end:                                           ; preds = %if.then, %entry
  ret void
}